target datalayout = "e-m:e-p270:32:32-p271:32:32-p272:64:64-i64:64-i128:128-f80:128-n8:16:32:64-S128"
target triple = "x86_64-pc-linux-gnu"

%struct.Aig_Man_t_ = type { ptr, ptr, ptr, ptr, ptr, ptr, ptr, %struct.Aig_Obj_t_, i32, i32, i32, i32, i32, i32, [7 x i32], i32, ptr, i32, ptr, i32, ptr, i32, i32, i32, ptr, i32, i32, i32, i32, i32, ptr, ptr, i32, ptr, ptr, i32, ptr, ptr, i32, i32, i32, ptr, ptr, ptr, ptr, ptr, ptr, ptr, ptr, ptr, ptr, ptr, ptr, ptr, ptr, i32, ptr, ptr, ptr, ptr, i32, i64, i64, i64, ptr, ptr }
%struct.Aig_Obj_t_ = type { %union.anon, ptr, ptr, i64, i32, i32, %union.anon.0 }
%union.anon = type { ptr }
%union.anon.0 = type { ptr }
%struct.Vec_Ptr_t_ = type { i32, i32, ptr }
%struct.Vec_Int_t_ = type { i32, i32, ptr }
%struct.Gia_ManBmc_t_ = type { ptr, ptr, ptr, ptr, ptr, ptr, ptr, ptr, ptr, ptr, ptr, ptr, ptr, i32, i32, i32, i32, i32, i32, i32, ptr, ptr, ptr, i32, i32, i32, ptr, ptr }
%struct.sat_solver_t = type { i32, i32, i32, i32, %struct.Sat_Mem_t_, i32, i32, ptr, ptr, i32, i32, i32, i32, i32, i64, i64, i64, ptr, ptr, i32, i32, %struct.veci_t, ptr, i32, ptr, ptr, ptr, ptr, ptr, ptr, ptr, ptr, %struct.veci_t, %struct.veci_t, %struct.veci_t, %struct.veci_t, ptr, %struct.veci_t, i32, i32, i32, double, double, i32, i32, i32, %struct.stats_t, i32, i32, i32, i32, i32, i64, i64, i64, %struct.veci_t, ptr, i32, i32, i32, %struct.veci_t, %struct.veci_t, i32, i32, i32, ptr, ptr, i32, ptr, i32, i32, %struct.veci_t, %struct.veci_t, %struct.veci_t, ptr, ptr, i32, ptr }
%struct.Sat_Mem_t_ = type { [2 x i32], [2 x i32], [2 x i32], [2 x i32], i32, i32, i32, i32, ptr }
%struct.stats_t = type { i32, i32, i32, i64, i64, i64, i64, i64, i64, i64 }
%struct.veci_t = type { i32, i32, ptr }
%struct.Abc_Cex_t_ = type { i32, i32, i32, i32, i32, [0 x i32] }

; Function Attrs: inlinehint nounwind uwtable
define internal i32 @Vec_IntEntry(ptr noundef %0, i32 noundef %1) #5 {
  %3 = alloca ptr, align 8
  %4 = alloca i32, align 4
  store ptr %0, ptr %3, align 8, !tbaa !68
  store i32 %1, ptr %4, align 4, !tbaa !8
  %5 = load ptr, ptr %3, align 8, !tbaa !68
  %6 = getelementptr inbounds nuw %struct.Vec_Int_t_, ptr %5, i32 0, i32 2
  %7 = load ptr, ptr %6, align 8, !tbaa !81
  %8 = load i32, ptr %4, align 4, !tbaa !8
  %9 = sext i32 %8 to i64
  %10 = getelementptr inbounds i32, ptr %7, i64 %9
  %11 = load i32, ptr %10, align 4, !tbaa !8
  ret i32 %11
}

; Function Attrs: inlinehint nounwind uwtable
define internal i32 @Aig_ObjId(ptr noundef %0) #5 {
  %2 = alloca ptr, align 8
  store ptr %0, ptr %2, align 8, !tbaa !26
  %3 = load ptr, ptr %2, align 8, !tbaa !26
  %4 = getelementptr inbounds nuw %struct.Aig_Obj_t_, ptr %3, i32 0, i32 5
  %5 = load i32, ptr %4, align 4, !tbaa !80
  ret i32 %5
}

; Function Attrs: inlinehint nounwind uwtable
define internal i32 @sat_solver_var_value(ptr noundef %0, i32 noundef %1) #5 {
  %3 = alloca ptr, align 8
  %4 = alloca i32, align 4
  store ptr %0, ptr %3, align 8, !tbaa !160
  store i32 %1, ptr %4, align 4, !tbaa !8
  %5 = load ptr, ptr %3, align 8, !tbaa !160
  %6 = getelementptr inbounds nuw %struct.sat_solver_t, ptr %5, i32 0, i32 36
  %7 = load ptr, ptr %6, align 8, !tbaa !205
  %8 = load i32, ptr %4, align 4, !tbaa !8
  %9 = sext i32 %8 to i64
  %10 = getelementptr inbounds i32, ptr %7, i64 %9
  %11 = load i32, ptr %10, align 4, !tbaa !8
  %12 = icmp eq i32 %11, 1
  %13 = zext i1 %12 to i32
  ret i32 %13
}

; Function Attrs: inlinehint nounwind uwtable
define internal void @Abc_InfoSetBit(ptr noundef %0, i32 noundef %1) #5 {
  %3 = alloca ptr, align 8
  %4 = alloca i32, align 4
  store ptr %0, ptr %3, align 8, !tbaa !12
  store i32 %1, ptr %4, align 4, !tbaa !8
  %5 = load i32, ptr %4, align 4, !tbaa !8
  %6 = and i32 %5, 31
  %7 = shl i32 1, %6
  %8 = load ptr, ptr %3, align 8, !tbaa !12
  %9 = load i32, ptr %4, align 4, !tbaa !8
  %10 = ashr i32 %9, 5
  %11 = sext i32 %10 to i64
  %12 = getelementptr inbounds i32, ptr %8, i64 %11
  %13 = load i32, ptr %12, align 4, !tbaa !8
  %14 = or i32 %13, %7
  store i32 %14, ptr %12, align 4, !tbaa !8
  ret void
}

; Function Attrs: inlinehint nounwind uwtable
define internal i32 @lit_var(i32 noundef %0) #5 {
  %2 = alloca i32, align 4
  store i32 %0, ptr %2, align 4, !tbaa !8
  %3 = load i32, ptr %2, align 4, !tbaa !8
  %4 = ashr i32 %3, 1
  ret i32 %4
}

; Function Attrs: inlinehint nounwind uwtable
define internal i32 @Saig_ManBmcLiteral(ptr noundef %0, ptr noundef %1, i32 noundef %2) #5 {
  %4 = alloca ptr, align 8
  %5 = alloca ptr, align 8
  %6 = alloca i32, align 4
  %7 = alloca ptr, align 8
  %8 = alloca i32, align 4
  store ptr %0, ptr %4, align 8, !tbaa !87
  store ptr %1, ptr %5, align 8, !tbaa !26
  store i32 %2, ptr %6, align 4, !tbaa !8
  call void @llvm.lifetime.start.p0(i64 8, ptr %7) #11
  call void @llvm.lifetime.start.p0(i64 4, ptr %8) #11
  %9 = load ptr, ptr %4, align 8, !tbaa !87
  %10 = getelementptr inbounds nuw %struct.Gia_ManBmc_t_, ptr %9, i32 0, i32 5
  %11 = load ptr, ptr %10, align 8, !tbaa !100
  %12 = load ptr, ptr %5, align 8, !tbaa !26
  %13 = call i32 @Aig_ObjId(ptr noundef %12)
  %14 = call i32 @Vec_IntEntry(ptr noundef %11, i32 noundef %13)
  store i32 %14, ptr %8, align 4, !tbaa !8
  %15 = load ptr, ptr %4, align 8, !tbaa !87
  %16 = getelementptr inbounds nuw %struct.Gia_ManBmc_t_, ptr %15, i32 0, i32 7
  %17 = load ptr, ptr %16, align 8, !tbaa !104
  %18 = load i32, ptr %6, align 4, !tbaa !8
  %19 = call ptr @Vec_PtrEntry(ptr noundef %17, i32 noundef %18)
  store ptr %19, ptr %7, align 8, !tbaa !68
  %20 = load ptr, ptr %7, align 8, !tbaa !68
  %21 = load i32, ptr %8, align 4, !tbaa !8
  %22 = call i32 @Vec_IntEntry(ptr noundef %20, i32 noundef %21)
  call void @llvm.lifetime.end.p0(i64 4, ptr %8) #11
  call void @llvm.lifetime.end.p0(i64 8, ptr %7) #11
  ret i32 %22
}

; Function Attrs: inlinehint nounwind uwtable
define internal ptr @Vec_PtrEntry(ptr noundef %0, i32 noundef %1) #5 {
  %3 = alloca ptr, align 8
  %4 = alloca i32, align 4
  store ptr %0, ptr %3, align 8, !tbaa !30
  store i32 %1, ptr %4, align 4, !tbaa !8
  %5 = load ptr, ptr %3, align 8, !tbaa !30
  %6 = getelementptr inbounds nuw %struct.Vec_Ptr_t_, ptr %5, i32 0, i32 2
  %7 = load ptr, ptr %6, align 8, !tbaa !31
  %8 = load i32, ptr %4, align 4, !tbaa !8
  %9 = sext i32 %8 to i64
  %10 = getelementptr inbounds ptr, ptr %7, i64 %9
  %11 = load ptr, ptr %10, align 8, !tbaa !33
  ret ptr %11
}

; Function Attrs: inlinehint nounwind uwtable
define internal i32 @Saig_ManRegNum(ptr noundef %0) #5 {
  %2 = alloca ptr, align 8
  store ptr %0, ptr %2, align 8, !tbaa !10
  %3 = load ptr, ptr %2, align 8, !tbaa !10
  %4 = getelementptr inbounds nuw %struct.Aig_Man_t_, ptr %3, i32 0, i32 8
  %5 = load i32, ptr %4, align 8, !tbaa !29
  ret i32 %5
}

; Function Attrs: inlinehint nounwind uwtable
define internal i32 @Saig_ManPoNum(ptr noundef %0) #5 {
  %2 = alloca ptr, align 8
  store ptr %0, ptr %2, align 8, !tbaa !10
  %3 = load ptr, ptr %2, align 8, !tbaa !10
  %4 = getelementptr inbounds nuw %struct.Aig_Man_t_, ptr %3, i32 0, i32 10
  %5 = load i32, ptr %4, align 8, !tbaa !34
  ret i32 %5
}

; Function Attrs: inlinehint nounwind uwtable
define internal i32 @Saig_ManPiNum(ptr noundef %0) #5 {
  %2 = alloca ptr, align 8
  store ptr %0, ptr %2, align 8, !tbaa !10
  %3 = load ptr, ptr %2, align 8, !tbaa !10
  %4 = getelementptr inbounds nuw %struct.Aig_Man_t_, ptr %3, i32 0, i32 9
  %5 = load i32, ptr %4, align 4, !tbaa !44
  ret i32 %5
}

; Function Attrs: inlinehint nounwind uwtable
define internal i32 @Aig_ManRegNum(ptr noundef %0) #5 {
  %2 = alloca ptr, align 8
  store ptr %0, ptr %2, align 8, !tbaa !10
  %3 = load ptr, ptr %2, align 8, !tbaa !10
  %4 = getelementptr inbounds nuw %struct.Aig_Man_t_, ptr %3, i32 0, i32 8
  %5 = load i32, ptr %4, align 8, !tbaa !29
  ret i32 %5
}

; Function Attrs: nounwind uwtable
define ptr @Saig_ManGenerateCex(ptr noundef %0, i32 noundef %1, i32 noundef %2) #0 {
  %4 = alloca ptr, align 8
  %5 = alloca i32, align 4
  %6 = alloca i32, align 4
  %7 = alloca ptr, align 8
  %8 = alloca ptr, align 8
  %9 = alloca i32, align 4
  %10 = alloca i32, align 4
  %11 = alloca i32, align 4
  %12 = alloca i32, align 4
  store ptr %0, ptr %4, align 8, !tbaa !87
  store i32 %1, ptr %5, align 4, !tbaa !8
  store i32 %2, ptr %6, align 4, !tbaa !8
  call void @llvm.lifetime.start.p0(i64 8, ptr %7) #11
  call void @llvm.lifetime.start.p0(i64 8, ptr %8) #11
  %13 = load ptr, ptr %4, align 8, !tbaa !87
  %14 = getelementptr inbounds nuw %struct.Gia_ManBmc_t_, ptr %13, i32 0, i32 1
  %15 = load ptr, ptr %14, align 8, !tbaa !89
  %16 = call i32 @Aig_ManRegNum(ptr noundef %15)
  %17 = load ptr, ptr %4, align 8, !tbaa !87
  %18 = getelementptr inbounds nuw %struct.Gia_ManBmc_t_, ptr %17, i32 0, i32 1
  %19 = load ptr, ptr %18, align 8, !tbaa !89
  %20 = call i32 @Saig_ManPiNum(ptr noundef %19)
  %21 = load ptr, ptr %4, align 8, !tbaa !87
  %22 = getelementptr inbounds nuw %struct.Gia_ManBmc_t_, ptr %21, i32 0, i32 1
  %23 = load ptr, ptr %22, align 8, !tbaa !89
  %24 = call i32 @Saig_ManPoNum(ptr noundef %23)
  %25 = load i32, ptr %5, align 4, !tbaa !8
  %26 = load ptr, ptr %4, align 8, !tbaa !87
  %27 = getelementptr inbounds nuw %struct.Gia_ManBmc_t_, ptr %26, i32 0, i32 1
  %28 = load ptr, ptr %27, align 8, !tbaa !89
  %29 = call i32 @Saig_ManPoNum(ptr noundef %28)
  %30 = mul nsw i32 %25, %29
  %31 = load i32, ptr %6, align 4, !tbaa !8
  %32 = add nsw i32 %30, %31
  %33 = call ptr @Abc_CexMakeTriv(i32 noundef %16, i32 noundef %20, i32 noundef %24, i32 noundef %32)
  store ptr %33, ptr %8, align 8, !tbaa !202
  call void @llvm.lifetime.start.p0(i64 4, ptr %9) #11
  call void @llvm.lifetime.start.p0(i64 4, ptr %10) #11
  call void @llvm.lifetime.start.p0(i64 4, ptr %11) #11
  %34 = load ptr, ptr %4, align 8, !tbaa !87
  %35 = getelementptr inbounds nuw %struct.Gia_ManBmc_t_, ptr %34, i32 0, i32 1
  %36 = load ptr, ptr %35, align 8, !tbaa !89
  %37 = call i32 @Saig_ManRegNum(ptr noundef %36)
  store i32 %37, ptr %11, align 4, !tbaa !8
  store i32 0, ptr %9, align 4, !tbaa !8
  br label %38

38:                                               ; preds = %137, %3
  %39 = load i32, ptr %9, align 4, !tbaa !8
  %40 = load i32, ptr %5, align 4, !tbaa !8
  %41 = icmp sle i32 %39, %40
  br i1 %41, label %42, label %146

42:                                               ; preds = %38
  store i32 0, ptr %10, align 4, !tbaa !8
  br label %43

43:                                               ; preds = %133, %42
  %44 = load i32, ptr %10, align 4, !tbaa !8
  %45 = load ptr, ptr %4, align 8, !tbaa !87
  %46 = getelementptr inbounds nuw %struct.Gia_ManBmc_t_, ptr %45, i32 0, i32 1
  %47 = load ptr, ptr %46, align 8, !tbaa !89
  %48 = call i32 @Saig_ManPiNum(ptr noundef %47)
  %49 = icmp slt i32 %44, %48
  br i1 %49, label %50, label %58

50:                                               ; preds = %43
  %51 = load ptr, ptr %4, align 8, !tbaa !87
  %52 = getelementptr inbounds nuw %struct.Gia_ManBmc_t_, ptr %51, i32 0, i32 1
  %53 = load ptr, ptr %52, align 8, !tbaa !89
  %54 = getelementptr inbounds nuw %struct.Aig_Man_t_, ptr %53, i32 0, i32 2
  %55 = load ptr, ptr %54, align 8, !tbaa !36
  %56 = load i32, ptr %10, align 4, !tbaa !8
  %57 = call ptr @Vec_PtrEntry(ptr noundef %55, i32 noundef %56)
  store ptr %57, ptr %7, align 8, !tbaa !26
  br label %58

58:                                               ; preds = %50, %43
  %59 = phi i1 [ false, %43 ], [ true, %50 ]
  br i1 %59, label %60, label %136

60:                                               ; preds = %58
  call void @llvm.lifetime.start.p0(i64 4, ptr %12) #11
  %61 = load ptr, ptr %4, align 8, !tbaa !87
  %62 = load ptr, ptr %7, align 8, !tbaa !26
  %63 = load i32, ptr %9, align 4, !tbaa !8
  %64 = call i32 @Saig_ManBmcLiteral(ptr noundef %61, ptr noundef %62, i32 noundef %63)
  store i32 %64, ptr %12, align 4, !tbaa !8
  %65 = load ptr, ptr %4, align 8, !tbaa !87
  %66 = getelementptr inbounds nuw %struct.Gia_ManBmc_t_, ptr %65, i32 0, i32 21
  %67 = load ptr, ptr %66, align 8, !tbaa !112
  %68 = icmp ne ptr %67, null
  br i1 %68, label %69, label %88

69:                                               ; preds = %60
  %70 = load i32, ptr %12, align 4, !tbaa !8
  %71 = icmp ne i32 %70, -1
  br i1 %71, label %72, label %87

72:                                               ; preds = %69
  %73 = load ptr, ptr %4, align 8, !tbaa !87
  %74 = getelementptr inbounds nuw %struct.Gia_ManBmc_t_, ptr %73, i32 0, i32 21
  %75 = load ptr, ptr %74, align 8, !tbaa !112
  %76 = load i32, ptr %12, align 4, !tbaa !8
  %77 = call i32 @lit_var(i32 noundef %76)
  %78 = call i32 @satoko_read_cex_varvalue(ptr noundef %75, i32 noundef %77)
  %79 = icmp ne i32 %78, 0
  br i1 %79, label %80, label %87

80:                                               ; preds = %72
  %81 = load ptr, ptr %8, align 8, !tbaa !202
  %82 = getelementptr inbounds nuw %struct.Abc_Cex_t_, ptr %81, i32 0, i32 5
  %83 = getelementptr inbounds [0 x i32], ptr %82, i64 0, i64 0
  %84 = load i32, ptr %11, align 4, !tbaa !8
  %85 = load i32, ptr %10, align 4, !tbaa !8
  %86 = add nsw i32 %84, %85
  call void @Abc_InfoSetBit(ptr noundef %83, i32 noundef %86)
  br label %87

87:                                               ; preds = %80, %72, %69
  br label %132

88:                                               ; preds = %60
  %89 = load ptr, ptr %4, align 8, !tbaa !87
  %90 = getelementptr inbounds nuw %struct.Gia_ManBmc_t_, ptr %89, i32 0, i32 22
  %91 = load ptr, ptr %90, align 8, !tbaa !113
  %92 = icmp ne ptr %91, null
  br i1 %92, label %93, label %112

93:                                               ; preds = %88
  %94 = load i32, ptr %12, align 4, !tbaa !8
  %95 = icmp ne i32 %94, -1
  br i1 %95, label %96, label %111

96:                                               ; preds = %93
  %97 = load ptr, ptr %4, align 8, !tbaa !87
  %98 = getelementptr inbounds nuw %struct.Gia_ManBmc_t_, ptr %97, i32 0, i32 22
  %99 = load ptr, ptr %98, align 8, !tbaa !113
  %100 = load i32, ptr %12, align 4, !tbaa !8
  %101 = call i32 @lit_var(i32 noundef %100)
  %102 = call i32 @bmcg_sat_solver_read_cex_varvalue(ptr noundef %99, i32 noundef %101)
  %103 = icmp ne i32 %102, 0
  br i1 %103, label %104, label %111

104:                                              ; preds = %96
  %105 = load ptr, ptr %8, align 8, !tbaa !202
  %106 = getelementptr inbounds nuw %struct.Abc_Cex_t_, ptr %105, i32 0, i32 5
  %107 = getelementptr inbounds [0 x i32], ptr %106, i64 0, i64 0
  %108 = load i32, ptr %11, align 4, !tbaa !8
  %109 = load i32, ptr %10, align 4, !tbaa !8
  %110 = add nsw i32 %108, %109
  call void @Abc_InfoSetBit(ptr noundef %107, i32 noundef %110)
  br label %111

111:                                              ; preds = %104, %96, %93
  br label %131

112:                                              ; preds = %88
  %113 = load i32, ptr %12, align 4, !tbaa !8
  %114 = icmp ne i32 %113, -1
  br i1 %114, label %115, label %130

115:                                              ; preds = %112
  %116 = load ptr, ptr %4, align 8, !tbaa !87
  %117 = getelementptr inbounds nuw %struct.Gia_ManBmc_t_, ptr %116, i32 0, i32 20
  %118 = load ptr, ptr %117, align 8, !tbaa !115
  %119 = load i32, ptr %12, align 4, !tbaa !8
  %120 = call i32 @lit_var(i32 noundef %119)
  %121 = call i32 @sat_solver_var_value(ptr noundef %118, i32 noundef %120)
  %122 = icmp ne i32 %121, 0
  br i1 %122, label %123, label %130

123:                                              ; preds = %115
  %124 = load ptr, ptr %8, align 8, !tbaa !202
  %125 = getelementptr inbounds nuw %struct.Abc_Cex_t_, ptr %124, i32 0, i32 5
  %126 = getelementptr inbounds [0 x i32], ptr %125, i64 0, i64 0
  %127 = load i32, ptr %11, align 4, !tbaa !8
  %128 = load i32, ptr %10, align 4, !tbaa !8
  %129 = add nsw i32 %127, %128
  call void @Abc_InfoSetBit(ptr noundef %126, i32 noundef %129)
  br label %130

130:                                              ; preds = %123, %115, %112
  br label %131

131:                                              ; preds = %130, %111
  br label %132

132:                                              ; preds = %131, %87
  call void @llvm.lifetime.end.p0(i64 4, ptr %12) #11
  br label %133

133:                                              ; preds = %132
  %134 = load i32, ptr %10, align 4, !tbaa !8
  %135 = add nsw i32 %134, 1
  store i32 %135, ptr %10, align 4, !tbaa !8
  br label %43, !llvm.loop !203

136:                                              ; preds = %58
  br label %137

137:                                              ; preds = %136
  %138 = load i32, ptr %9, align 4, !tbaa !8
  %139 = add nsw i32 %138, 1
  store i32 %139, ptr %9, align 4, !tbaa !8
  %140 = load ptr, ptr %4, align 8, !tbaa !87
  %141 = getelementptr inbounds nuw %struct.Gia_ManBmc_t_, ptr %140, i32 0, i32 1
  %142 = load ptr, ptr %141, align 8, !tbaa !89
  %143 = call i32 @Saig_ManPiNum(ptr noundef %142)
  %144 = load i32, ptr %11, align 4, !tbaa !8
  %145 = add nsw i32 %144, %143
  store i32 %145, ptr %11, align 4, !tbaa !8
  br label %38, !llvm.loop !204

146:                                              ; preds = %38
  %147 = load ptr, ptr %8, align 8, !tbaa !202
  call void @llvm.lifetime.end.p0(i64 4, ptr %11) #11
  call void @llvm.lifetime.end.p0(i64 4, ptr %10) #11
  call void @llvm.lifetime.end.p0(i64 4, ptr %9) #11
  call void @llvm.lifetime.end.p0(i64 8, ptr %8) #11
  call void @llvm.lifetime.end.p0(i64 8, ptr %7) #11
  ret ptr %147
}