; Function Attrs: nounwind uwtable
define ptr @Saig_ManGenerateCex(ptr noundef readonly captures(none) %0, i32 noundef %1, i32 noundef %2) local_unnamed_addr #0 {
  %4 = getelementptr inbounds nuw i8, ptr %0, i64 8
  %5 = load ptr, ptr %4, align 8, !tbaa !87
  %6 = getelementptr i8, ptr %5, i64 104
  %.val62 = load i32, ptr %6, align 8, !tbaa !3
  %7 = getelementptr i8, ptr %5, i64 108
  %.val58 = load i32, ptr %7, align 4, !tbaa !34
  %8 = getelementptr i8, ptr %5, i64 112
  %.val54 = load i32, ptr %8, align 8, !tbaa !22
  %9 = mul nsw i32 %.val54, %1
  %10 = add nsw i32 %9, %2
  %11 = tail call ptr @Abc_CexMakeTriv(i32 noundef %.val62, i32 noundef %.val58, i32 noundef %.val54, i32 noundef %10) #24
  %.not67 = icmp slt i32 %1, 0
  br i1 %.not67, label %._crit_edge, label %.preheader.lr.ph

.preheader.lr.ph:                                 ; preds = %3
  %12 = load ptr, ptr %4, align 8, !tbaa !87
  %13 = getelementptr i8, ptr %0, i64 40
  %14 = getelementptr i8, ptr %0, i64 56
  %15 = getelementptr inbounds nuw i8, ptr %0, i64 144
  %16 = getelementptr inbounds nuw i8, ptr %11, i64 20
  %17 = getelementptr inbounds nuw i8, ptr %0, i64 152
  %18 = getelementptr inbounds nuw i8, ptr %0, i64 136
  %19 = getelementptr i8, ptr %12, i64 108
  %20 = load i32, ptr %19, align 4, !tbaa !34
  %21 = icmp sgt i32 %20, 0
  br i1 %21, label %.preheader.preheader, label %._crit_edge

.preheader.preheader:                             ; preds = %.preheader.lr.ph
  %22 = getelementptr i8, ptr %12, i64 104
  %.val = load i32, ptr %22, align 8, !tbaa !3
  %23 = add nuw i32 %1, 1
  %wide.trip.count = zext i32 %23 to i64
  br label %.preheader

.preheader:                                       ; preds = %.preheader.preheader, %.critedge
  %24 = phi ptr [ %12, %.preheader.preheader ], [ %78, %.critedge ]
  %indvars.iv73 = phi i64 [ 0, %.preheader.preheader ], [ %indvars.iv.next74, %.critedge ]
  %.04068 = phi i32 [ %.val, %.preheader.preheader ], [ %79, %.critedge ]
  %25 = getelementptr i8, ptr %24, i64 108
  %.val5765 = load i32, ptr %25, align 4, !tbaa !34
  %26 = icmp sgt i32 %.val5765, 0
  br i1 %26, label %.lr.ph, label %.critedge

.lr.ph:                                           ; preds = %.preheader, %73
  %indvars.iv = phi i64 [ %indvars.iv.next, %73 ], [ 0, %.preheader ]
  %27 = phi ptr [ %74, %73 ], [ %24, %.preheader ]
  %28 = getelementptr inbounds nuw i8, ptr %27, i64 16
  %29 = load ptr, ptr %28, align 8, !tbaa !35
  %30 = getelementptr i8, ptr %29, i64 8
  %.val55 = load ptr, ptr %30, align 8, !tbaa !23
  %31 = getelementptr inbounds nuw ptr, ptr %.val55, i64 %indvars.iv
  %32 = load ptr, ptr %31, align 8, !tbaa !25
  %.val59 = load ptr, ptr %13, align 8, !tbaa !97
  %.val60 = load ptr, ptr %14, align 8, !tbaa !102
  %33 = getelementptr i8, ptr %32, i64 36
  %.val61 = load i32, ptr %33, align 4, !tbaa !27
  %34 = getelementptr i8, ptr %.val59, i64 8
  %.val59.val = load ptr, ptr %34, align 8, !tbaa !71
  %35 = getelementptr i8, ptr %.val60, i64 8
  %.val60.val = load ptr, ptr %35, align 8, !tbaa !23
  %36 = sext i32 %.val61 to i64
  %37 = getelementptr inbounds i32, ptr %.val59.val, i64 %36
  %38 = load i32, ptr %37, align 4, !tbaa !28
  %39 = getelementptr inbounds nuw ptr, ptr %.val60.val, i64 %indvars.iv73
  %40 = load ptr, ptr %39, align 8, !tbaa !25
  %41 = getelementptr i8, ptr %40, i64 8
  %.val6.i = load ptr, ptr %41, align 8, !tbaa !71
  %42 = sext i32 %38 to i64
  %43 = getelementptr inbounds i32, ptr %.val6.i, i64 %42
  %44 = load i32, ptr %43, align 4, !tbaa !28
  %45 = load ptr, ptr %15, align 8, !tbaa !114
  %.not45 = icmp eq ptr %45, null
  br i1 %.not45, label %50, label %46

46:                                               ; preds = %.lr.ph
  %.not51 = icmp eq i32 %44, -1
  br i1 %.not51, label %73, label %47

47:                                               ; preds = %46
  %48 = ashr i32 %44, 1
  %49 = tail call i32 @satoko_read_cex_varvalue(ptr noundef nonnull %45, i32 noundef %48) #24
  %.not52 = icmp eq i32 %49, 0
  br i1 %.not52, label %73, label %.sink.split

50:                                               ; preds = %.lr.ph
  %51 = load ptr, ptr %17, align 8, !tbaa !115
  %.not46 = icmp eq ptr %51, null
  %.not47 = icmp eq i32 %44, -1
  br i1 %.not46, label %56, label %52

52:                                               ; preds = %50
  br i1 %.not47, label %73, label %53

53:                                               ; preds = %52
  %54 = ashr i32 %44, 1
  %55 = tail call i32 @bmcg_sat_solver_read_cex_varvalue(ptr noundef nonnull %51, i32 noundef %54) #24
  %.not50 = icmp eq i32 %55, 0
  br i1 %.not50, label %73, label %.sink.split

56:                                               ; preds = %50
  br i1 %.not47, label %73, label %57

57:                                               ; preds = %56
  %58 = load ptr, ptr %18, align 8, !tbaa !117
  %59 = ashr i32 %44, 1
  %60 = getelementptr i8, ptr %58, i64 328
  %.val63 = load ptr, ptr %60, align 8, !tbaa !194
  %61 = sext i32 %59 to i64
  %62 = getelementptr inbounds i32, ptr %.val63, i64 %61
  %63 = load i32, ptr %62, align 4, !tbaa !28
  %.not64 = icmp eq i32 %63, 1
  br i1 %.not64, label %.sink.split, label %73

.sink.split:                                      ; preds = %57, %53, %47
  %64 = trunc i64 %indvars.iv to i32
  %65 = add i32 %.04068, %64
  %66 = and i32 %65, 31
  %67 = shl nuw i32 1, %66
  %68 = ashr i32 %65, 5
  %69 = sext i32 %68 to i64
  %70 = getelementptr inbounds i32, ptr %16, i64 %69
  %71 = load i32, ptr %70, align 4, !tbaa !28
  %72 = or i32 %71, %67
  store i32 %72, ptr %70, align 4, !tbaa !28
  br label %73

73:                                               ; preds = %.sink.split, %53, %52, %57, %56, %46, %47
  %indvars.iv.next = add nuw nsw i64 %indvars.iv, 1
  %74 = load ptr, ptr %4, align 8, !tbaa !87
  %75 = getelementptr i8, ptr %74, i64 108
  %.val57 = load i32, ptr %75, align 4, !tbaa !34
  %76 = sext i32 %.val57 to i64
  %77 = icmp slt i64 %indvars.iv.next, %76
  br i1 %77, label %.lr.ph, label %.critedge, !llvm.loop !195

.critedge:                                        ; preds = %73, %.preheader
  %78 = phi ptr [ %24, %.preheader ], [ %74, %73 ]
  %.val57.lcssa = phi i32 [ %.val5765, %.preheader ], [ %.val57, %73 ]
  %indvars.iv.next74 = add nuw nsw i64 %indvars.iv73, 1
  %79 = add nsw i32 %.val57.lcssa, %.04068
  %exitcond.not = icmp eq i64 %indvars.iv.next74, %wide.trip.count
  br i1 %exitcond.not, label %._crit_edge, label %.preheader, !llvm.loop !196

._crit_edge:                                      ; preds = %.critedge, %.preheader.lr.ph, %3
  ret ptr %11
}